; Function Attrs: mustprogress uwtable
define dso_local void @_ZN3ozz3log3OutC2Ev(ptr noundef nonnull writeonly align 8 captures(none) dereferenceable(9) initializes((0, 9)) %0) unnamed_addr #5 align 2 {
  %2 = load i32, ptr @_ZN3ozz3log12_GLOBAL__N_19log_levelE, align 4, !tbaa !4
  %.not.i = icmp slt i32 %2, 1
  br i1 %.not.i, label %3, label %_ZN3ozz3log6LoggerC2ERSoNS0_5LevelE.exit

3:                                                ; preds = %1
  %4 = tail call noundef ptr @_ZN3ozz6memory17default_allocatorEv()
  %5 = load ptr, ptr %4, align 8, !tbaa !8
  %6 = getelementptr inbounds nuw i8, ptr %5, i64 16
  %7 = load ptr, ptr %6, align 8
  %8 = tail call noundef ptr %7(ptr noundef nonnull align 8 dereferenceable(8) %4, i64 noundef 376, i64 noundef 8)
  tail call void @_ZNSt7__cxx1119basic_ostringstreamIcSt11char_traitsIcESaIcEEC1Ev(ptr noundef nonnull align 8 dereferenceable(112) %8)
  br label %_ZN3ozz3log6LoggerC2ERSoNS0_5LevelE.exit

_ZN3ozz3log6LoggerC2ERSoNS0_5LevelE.exit:         ; preds = %1, %3
  %9 = phi ptr [ %8, %3 ], [ @_ZSt4cout, %1 ]
  store ptr %9, ptr %0, align 8, !tbaa !10
  %10 = getelementptr inbounds nuw i8, ptr %0, i64 8
  %11 = icmp ne ptr %9, @_ZSt4cout
  %12 = zext i1 %11 to i8
  store i8 %12, ptr %10, align 8, !tbaa !13
  ret void
}